(iunits.hero
Hero
p0
(dp1
S'attack_power'
p2
I25
sS'currentLevel'
p3
I4
sS'heroName'
p4
S'a'
p5
sS'health'
p6
I100
sS'lvl'
p7
(ilevels.levels
level
p8
(dp9
S'map'
p10
(lp11
(lp12
S' '
p13
ag13
ag13
ag13
aS'H'
p14
aS'R'
p15
aasS'level'
p16
I1
sbsS'max_health'
p17
I100
sb.